; Function Attrs: mustprogress nofree norecurse nosync nounwind willreturn memory(argmem: read) uwtable
define noundef i64 @_ZN5folly8external8farmhash10farmhashxo14Hash64WithSeedEPKcmm(ptr noundef captures(address) %0, i64 noundef %1, i64 noundef %2) local_unnamed_addr #0 {
  %4 = icmp ult i64 %1, 65
  br i1 %4, label %5, label %17

5:                                                ; preds = %3
  %6 = tail call noundef i64 @_ZN5folly8external8farmhash10farmhashna6Hash64EPKcm(ptr noundef %0, i64 noundef %1)
  %7 = add i64 %6, 7286425919675154353
  %8 = xor i64 %7, %2
  %9 = mul i64 %8, -7070675565921424023
  %10 = lshr i64 %9, 47
  %11 = xor i64 %2, %10
  %12 = xor i64 %11, %9
  %13 = mul i64 %12, -7070675565921424023
  %14 = lshr i64 %13, 47
  %15 = xor i64 %14, %13
  %16 = mul i64 %15, -7070675565921424023
  br label %_ZN5folly8external8farmhash10farmhashuo14Hash64WithSeedEPKcmm.exit

17:                                               ; preds = %3
  %18 = tail call noundef i64 @_ZN5folly8external8farmhash10farmhashuo15Hash64WithSeedsEPKcmmm(ptr noundef %0, i64 noundef %1, i64 noundef 0, i64 noundef %2)
  br label %_ZN5folly8external8farmhash10farmhashuo14Hash64WithSeedEPKcmm.exit

_ZN5folly8external8farmhash10farmhashuo14Hash64WithSeedEPKcmm.exit: ; preds = %5, %17
  %19 = phi i64 [ %16, %5 ], [ %18, %17 ]
  ret i64 %19
}